target datalayout = "e-m:e-p270:32:32-p271:32:32-p272:64:64-i64:64-i128:128-f80:128-n8:16:32:64-S128"
target triple = "x86_64-pc-linux-gnu"

%struct.Abc_Frame_t_ = type { ptr, ptr, ptr, ptr, ptr, ptr, ptr, ptr, ptr, ptr, i32, i32, i32, i32, i32, ptr, float, float, i32, i32, ptr, ptr, ptr, double, double, ptr, ptr, ptr, ptr, ptr, ptr, ptr, ptr, ptr, ptr, ptr, ptr, float, ptr, i32, ptr, ptr, ptr, ptr, ptr, i32, i32, i32, i32, i32, i32, ptr, ptr, ptr, ptr, ptr, ptr, i32, i32, ptr, ptr, ptr, ptr, ptr, ptr, ptr, ptr, ptr, ptr, ptr, ptr, ptr, ptr, ptr, ptr, ptr, ptr, ptr, ptr, ptr, ptr, ptr, ptr, ptr, ptr, ptr, ptr, ptr, ptr }

@.str.27 = private unnamed_addr constant [4 x i8] c"yes\00", align 1
@.str.28 = private unnamed_addr constant [3 x i8] c"no\00", align 1
@.str.30 = private unnamed_addr constant [62 x i8] c"\09-v     : toggle printing verbose information [default = %s]\0A\00", align 1
@.str.31 = private unnamed_addr constant [35 x i8] c"\09-h     : print the command usage\0A\00", align 1
@.str.69 = private unnamed_addr constant [5 x i8] c"bsvh\00", align 1
@.str.70 = private unnamed_addr constant [47 x i8] c"Cba_CommandPut(): There is no current design.\0A\00", align 1
@.str.71 = private unnamed_addr constant [49 x i8] c"Cba_CommandPut(): Conversion to AIG has failed.\0A\00", align 1
@.str.72 = private unnamed_addr constant [21 x i8] c"usage: :put [-bsvh]\0A\00", align 1
@.str.73 = private unnamed_addr constant [53 x i8] c"\09         extracts AIG from the hierarchical design\0A\00", align 1
@.str.74 = private unnamed_addr constant [55 x i8] c"\09-b     : toggle using barrier buffers [default = %s]\0A\00", align 1
@.str.75 = private unnamed_addr constant [62 x i8] c"\09-s     : toggle blasting sequential elements [default = %s]\0A\00", align 1

; Function Attrs: inlinehint nounwind uwtable
define internal ptr @Cba_AbcGetMan(ptr noundef %0) #2 {
  %2 = alloca ptr, align 8
  store ptr %0, ptr %2, align 8, !tbaa !3
  %3 = load ptr, ptr %2, align 8, !tbaa !3
  %4 = getelementptr inbounds nuw %struct.Abc_Frame_t_, ptr %3, i32 0, i32 75
  %5 = load ptr, ptr %4, align 8, !tbaa !57
  ret ptr %5
}

; Function Attrs: nounwind uwtable
define internal i32 @Cba_CommandPut(ptr noundef %0, i32 noundef %1, ptr noundef %2) #0 {
  %4 = alloca i32, align 4
  %5 = alloca ptr, align 8
  %6 = alloca i32, align 4
  %7 = alloca ptr, align 8
  %8 = alloca ptr, align 8
  %9 = alloca ptr, align 8
  %10 = alloca i32, align 4
  %11 = alloca i32, align 4
  %12 = alloca i32, align 4
  %13 = alloca i32, align 4
  %14 = alloca i32, align 4
  store ptr %0, ptr %5, align 8, !tbaa !3
  store i32 %1, ptr %6, align 4, !tbaa !8
  store ptr %2, ptr %7, align 8, !tbaa !10
  call void @llvm.lifetime.start.p0(i64 8, ptr %8) #14
  %15 = load ptr, ptr %5, align 8, !tbaa !3
  %16 = call ptr @Cba_AbcGetMan(ptr noundef %15)
  store ptr %16, ptr %8, align 8, !tbaa !12
  call void @llvm.lifetime.start.p0(i64 8, ptr %9) #14
  store ptr null, ptr %9, align 8, !tbaa !22
  call void @llvm.lifetime.start.p0(i64 4, ptr %10) #14
  call void @llvm.lifetime.start.p0(i64 4, ptr %11) #14
  store i32 1, ptr %11, align 4, !tbaa !8
  call void @llvm.lifetime.start.p0(i64 4, ptr %12) #14
  store i32 0, ptr %12, align 4, !tbaa !8
  call void @llvm.lifetime.start.p0(i64 4, ptr %13) #14
  store i32 0, ptr %13, align 4, !tbaa !8
  call void (...) @Extra_UtilGetoptReset()
  br label %17

17:                                               ; preds = %35, %3
  %18 = load i32, ptr %6, align 4, !tbaa !8
  %19 = load ptr, ptr %7, align 8, !tbaa !10
  %20 = call i32 @Extra_UtilGetopt(i32 noundef %18, ptr noundef %19, ptr noundef @.str.69)
  store i32 %20, ptr %10, align 4, !tbaa !8
  %21 = icmp ne i32 %20, -1
  br i1 %21, label %22, label %36

22:                                               ; preds = %17
  %23 = load i32, ptr %10, align 4, !tbaa !8
  switch i32 %23, label %34 [
    i32 98, label %24
    i32 115, label %27
    i32 118, label %30
    i32 104, label %33
  ]

24:                                               ; preds = %22
  %25 = load i32, ptr %11, align 4, !tbaa !8
  %26 = xor i32 %25, 1
  store i32 %26, ptr %11, align 4, !tbaa !8
  br label %35

27:                                               ; preds = %22
  %28 = load i32, ptr %12, align 4, !tbaa !8
  %29 = xor i32 %28, 1
  store i32 %29, ptr %12, align 4, !tbaa !8
  br label %35

30:                                               ; preds = %22
  %31 = load i32, ptr %13, align 4, !tbaa !8
  %32 = xor i32 %31, 1
  store i32 %32, ptr %13, align 4, !tbaa !8
  br label %35

33:                                               ; preds = %22
  br label %52

34:                                               ; preds = %22
  br label %52

35:                                               ; preds = %30, %27, %24
  br label %17, !llvm.loop !24

36:                                               ; preds = %17
  %37 = load ptr, ptr %8, align 8, !tbaa !12
  %38 = icmp eq ptr %37, null
  br i1 %38, label %39, label %40

39:                                               ; preds = %36
  call void (i32, ptr, ...) @Abc_Print(i32 noundef 1, ptr noundef @.str.70)
  store i32 0, ptr %4, align 4
  store i32 1, ptr %14, align 4
  br label %62

40:                                               ; preds = %36
  %41 = load ptr, ptr %8, align 8, !tbaa !12
  %42 = load i32, ptr %11, align 4, !tbaa !8
  %43 = load i32, ptr %12, align 4, !tbaa !8
  %44 = load i32, ptr %13, align 4, !tbaa !8
  %45 = call ptr @Cba_ManBlast(ptr noundef %41, i32 noundef %42, i32 noundef %43, i32 noundef %44)
  store ptr %45, ptr %9, align 8, !tbaa !22
  %46 = load ptr, ptr %9, align 8, !tbaa !22
  %47 = icmp eq ptr %46, null
  br i1 %47, label %48, label %49

48:                                               ; preds = %40
  call void (i32, ptr, ...) @Abc_Print(i32 noundef 1, ptr noundef @.str.71)
  store i32 0, ptr %4, align 4
  store i32 1, ptr %14, align 4
  br label %62

49:                                               ; preds = %40
  %50 = load ptr, ptr %5, align 8, !tbaa !3
  %51 = load ptr, ptr %9, align 8, !tbaa !22
  call void @Abc_FrameUpdateGia(ptr noundef %50, ptr noundef %51)
  store i32 0, ptr %4, align 4
  store i32 1, ptr %14, align 4
  br label %62

52:                                               ; preds = %34, %33
  call void (i32, ptr, ...) @Abc_Print(i32 noundef -2, ptr noundef @.str.72)
  call void (i32, ptr, ...) @Abc_Print(i32 noundef -2, ptr noundef @.str.73)
  %53 = load i32, ptr %11, align 4, !tbaa !8
  %54 = icmp ne i32 %53, 0
  %55 = select i1 %54, ptr @.str.27, ptr @.str.28
  call void (i32, ptr, ...) @Abc_Print(i32 noundef -2, ptr noundef @.str.74, ptr noundef %55)
  %56 = load i32, ptr %12, align 4, !tbaa !8
  %57 = icmp ne i32 %56, 0
  %58 = select i1 %57, ptr @.str.27, ptr @.str.28
  call void (i32, ptr, ...) @Abc_Print(i32 noundef -2, ptr noundef @.str.75, ptr noundef %58)
  %59 = load i32, ptr %13, align 4, !tbaa !8
  %60 = icmp ne i32 %59, 0
  %61 = select i1 %60, ptr @.str.27, ptr @.str.28
  call void (i32, ptr, ...) @Abc_Print(i32 noundef -2, ptr noundef @.str.30, ptr noundef %61)
  call void (i32, ptr, ...) @Abc_Print(i32 noundef -2, ptr noundef @.str.31)
  store i32 1, ptr %4, align 4
  store i32 1, ptr %14, align 4
  br label %62

62:                                               ; preds = %52, %49, %48, %39
  call void @llvm.lifetime.end.p0(i64 4, ptr %13) #14
  call void @llvm.lifetime.end.p0(i64 4, ptr %12) #14
  call void @llvm.lifetime.end.p0(i64 4, ptr %11) #14
  call void @llvm.lifetime.end.p0(i64 4, ptr %10) #14
  call void @llvm.lifetime.end.p0(i64 8, ptr %9) #14
  call void @llvm.lifetime.end.p0(i64 8, ptr %8) #14
  %63 = load i32, ptr %4, align 4
  ret i32 %63
}