; Function Attrs: nounwind uwtable
define internal range(i32 0, 2) i32 @Cba_CommandPut(ptr noundef %0, i32 noundef %1, ptr noundef %2) #0 {
  %4 = getelementptr i8, ptr %0, i64 536
  %.val = load ptr, ptr %4, align 8, !tbaa !63
  tail call void (...) @Extra_UtilGetoptReset() #19
  br label %.outer

.outer:                                           ; preds = %7, %3
  %.020.ph = phi i32 [ %8, %7 ], [ 1, %3 ]
  %.018.ph = phi i32 [ %.018.ph42, %7 ], [ 0, %3 ]
  %.0.ph = phi i32 [ %.0, %7 ], [ 0, %3 ]
  br label %.outer41

.outer41:                                         ; preds = %.outer, %9
  %.018.ph42 = phi i32 [ %.018.ph, %.outer ], [ %10, %9 ]
  %.0.ph43 = phi i32 [ %.0.ph, %.outer ], [ %.0, %9 ]
  br label %5

5:                                                ; preds = %.outer41, %11
  %.0 = phi i32 [ %12, %11 ], [ %.0.ph43, %.outer41 ]
  %6 = tail call i32 @Extra_UtilGetopt(i32 noundef %1, ptr noundef %2, ptr noundef nonnull @.str.69) #19
  switch i32 %6, label %21 [
    i32 -1, label %13
    i32 98, label %7
    i32 115, label %9
    i32 118, label %11
  ]

7:                                                ; preds = %5
  %8 = xor i32 %.020.ph, 1
  br label %.outer, !llvm.loop !80

9:                                                ; preds = %5
  %10 = xor i32 %.018.ph42, 1
  br label %.outer41, !llvm.loop !80

11:                                               ; preds = %5
  %12 = xor i32 %.0, 1
  br label %5, !llvm.loop !80

13:                                               ; preds = %5
  %14 = icmp eq ptr %.val, null
  br i1 %14, label %15, label %16

15:                                               ; preds = %13
  tail call void (i32, ptr, ...) @Abc_Print(i32 noundef 1, ptr noundef nonnull @.str.70)
  br label %25

16:                                               ; preds = %13
  %17 = tail call ptr @Cba_ManBlast(ptr noundef nonnull %.val, i32 noundef %.020.ph, i32 noundef %.018.ph42, i32 noundef %.0) #19
  %18 = icmp eq ptr %17, null
  br i1 %18, label %19, label %20

19:                                               ; preds = %16
  tail call void (i32, ptr, ...) @Abc_Print(i32 noundef 1, ptr noundef nonnull @.str.71)
  br label %25

20:                                               ; preds = %16
  tail call void @Abc_FrameUpdateGia(ptr noundef %0, ptr noundef nonnull %17) #19
  br label %25

21:                                               ; preds = %5
  tail call void (i32, ptr, ...) @Abc_Print(i32 noundef -2, ptr noundef nonnull @.str.72)
  tail call void (i32, ptr, ...) @Abc_Print(i32 noundef -2, ptr noundef nonnull @.str.73)
  %.not26 = icmp eq i32 %.020.ph, 0
  %22 = select i1 %.not26, ptr @.str.28, ptr @.str.27
  tail call void (i32, ptr, ...) @Abc_Print(i32 noundef -2, ptr noundef nonnull @.str.74, ptr noundef nonnull %22)
  %.not27 = icmp eq i32 %.018.ph42, 0
  %23 = select i1 %.not27, ptr @.str.28, ptr @.str.27
  tail call void (i32, ptr, ...) @Abc_Print(i32 noundef -2, ptr noundef nonnull @.str.75, ptr noundef nonnull %23)
  %.not28 = icmp eq i32 %.0, 0
  %24 = select i1 %.not28, ptr @.str.28, ptr @.str.27
  tail call void (i32, ptr, ...) @Abc_Print(i32 noundef -2, ptr noundef nonnull @.str.30, ptr noundef nonnull %24)
  tail call void (i32, ptr, ...) @Abc_Print(i32 noundef -2, ptr noundef nonnull @.str.31)
  br label %25

25:                                               ; preds = %21, %20, %19, %15
  %.022 = phi i32 [ 1, %21 ], [ 0, %15 ], [ 0, %19 ], [ 0, %20 ]
  ret i32 %.022
}